target datalayout = "e-m:e-p270:32:32-p271:32:32-p272:64:64-i64:64-i128:128-f80:128-n8:16:32:64-S128"
target triple = "x86_64-unknown-linux-gnu"

%struct.hiredisAllocFuncs = type { ptr, ptr, ptr, ptr, ptr }
%struct.__va_list_tag = type { i32, i32, ptr, ptr }

@hiredisAllocFns = external global %struct.hiredisAllocFuncs, align 8

; Function Attrs: nounwind uwtable
define internal void @hi_free(ptr noundef %ptr) #0 {
entry:
  %ptr.addr = alloca ptr, align 8
  store ptr %ptr, ptr %ptr.addr, align 8
  %0 = load ptr, ptr getelementptr inbounds (%struct.hiredisAllocFuncs, ptr @hiredisAllocFns, i32 0, i32 4), align 8
  %1 = load ptr, ptr %ptr.addr, align 8
  call void %0(ptr noundef %1)
  ret void
}

; Function Attrs: nounwind uwtable
define i32 @redisvAsyncCommand(ptr noundef %ac, ptr noundef %fn, ptr noundef %privdata, ptr noundef %format, ptr noundef %ap) #0 {
entry:
  %retval = alloca i32, align 4
  %ac.addr = alloca ptr, align 8
  %fn.addr = alloca ptr, align 8
  %privdata.addr = alloca ptr, align 8
  %format.addr = alloca ptr, align 8
  %ap.addr = alloca ptr, align 8
  %cmd = alloca ptr, align 8
  %len = alloca i32, align 4
  %status = alloca i32, align 4
  store ptr %ac, ptr %ac.addr, align 8
  store ptr %fn, ptr %fn.addr, align 8
  store ptr %privdata, ptr %privdata.addr, align 8
  store ptr %format, ptr %format.addr, align 8
  store ptr %ap, ptr %ap.addr, align 8
  %0 = load ptr, ptr %format.addr, align 8
  %1 = load ptr, ptr %ap.addr, align 8
  %call = call i32 @redisvFormatCommand(ptr noundef %cmd, ptr noundef %0, ptr noundef %1)
  store i32 %call, ptr %len, align 4
  %2 = load i32, ptr %len, align 4
  %cmp = icmp slt i32 %2, 0
  br i1 %cmp, label %if.then, label %if.end

if.then:                                          ; preds = %entry
  store i32 -1, ptr %retval, align 4
  br label %return

if.end:                                           ; preds = %entry
  %3 = load ptr, ptr %ac.addr, align 8
  %4 = load ptr, ptr %fn.addr, align 8
  %5 = load ptr, ptr %privdata.addr, align 8
  %6 = load ptr, ptr %cmd, align 8
  %7 = load i32, ptr %len, align 4
  %conv = sext i32 %7 to i64
  %call1 = call i32 @__redisAsyncCommand(ptr noundef %3, ptr noundef %4, ptr noundef %5, ptr noundef %6, i64 noundef %conv)
  store i32 %call1, ptr %status, align 4
  %8 = load ptr, ptr %cmd, align 8
  call void @hi_free(ptr noundef %8)
  %9 = load i32, ptr %status, align 4
  store i32 %9, ptr %retval, align 4
  br label %return

return:                                           ; preds = %if.end, %if.then
  %10 = load i32, ptr %retval, align 4
  ret i32 %10
}

; Function Attrs: nounwind uwtable
define i32 @redisAsyncCommand(ptr noundef %ac, ptr noundef %fn, ptr noundef %privdata, ptr noundef %format, ...) #0 {
entry:
  %ac.addr = alloca ptr, align 8
  %fn.addr = alloca ptr, align 8
  %privdata.addr = alloca ptr, align 8
  %format.addr = alloca ptr, align 8
  %ap = alloca [1 x %struct.__va_list_tag], align 16
  %status = alloca i32, align 4
  store ptr %ac, ptr %ac.addr, align 8
  store ptr %fn, ptr %fn.addr, align 8
  store ptr %privdata, ptr %privdata.addr, align 8
  store ptr %format, ptr %format.addr, align 8
  %arraydecay = getelementptr inbounds [1 x %struct.__va_list_tag], ptr %ap, i64 0, i64 0
  call void @llvm.va_start.p0(ptr %arraydecay)
  %0 = load ptr, ptr %ac.addr, align 8
  %1 = load ptr, ptr %fn.addr, align 8
  %2 = load ptr, ptr %privdata.addr, align 8
  %3 = load ptr, ptr %format.addr, align 8
  %arraydecay1 = getelementptr inbounds [1 x %struct.__va_list_tag], ptr %ap, i64 0, i64 0
  %call = call i32 @redisvAsyncCommand(ptr noundef %0, ptr noundef %1, ptr noundef %2, ptr noundef %3, ptr noundef %arraydecay1)
  store i32 %call, ptr %status, align 4
  %arraydecay2 = getelementptr inbounds [1 x %struct.__va_list_tag], ptr %ap, i64 0, i64 0
  call void @llvm.va_end.p0(ptr %arraydecay2)
  %4 = load i32, ptr %status, align 4
  ret i32 %4
}