; Function Attrs: nounwind uwtable
define noundef i32 @redisAsyncCommand(ptr noundef %ac, ptr noundef %fn, ptr noundef %privdata, ptr noundef %format, ...) local_unnamed_addr #0 {
entry:
  %cmd.i = alloca ptr, align 8
  %ap = alloca [1 x %struct.__va_list_tag], align 16
  call void @llvm.va_start.p0(ptr nonnull %ap)
  call void @llvm.lifetime.start.p0(i64 8, ptr nonnull %cmd.i)
  %call.i = call i32 @redisvFormatCommand(ptr noundef nonnull %cmd.i, ptr noundef %format, ptr noundef nonnull %ap) #14
  %cmp.i = icmp slt i32 %call.i, 0
  br i1 %cmp.i, label %redisvAsyncCommand.exit, label %if.end.i

if.end.i:                                         ; preds = %entry
  %0 = load ptr, ptr %cmd.i, align 8
  %conv.i = zext nneg i32 %call.i to i64
  %call1.i = call fastcc i32 @__redisAsyncCommand(ptr noundef %ac, ptr noundef %fn, ptr noundef %privdata, ptr noundef %0, i64 noundef %conv.i), !range !7
  %1 = load ptr, ptr %cmd.i, align 8
  %2 = load ptr, ptr getelementptr inbounds (%struct.hiredisAllocFuncs, ptr @hiredisAllocFns, i64 0, i32 4), align 8
  call void %2(ptr noundef %1) #14
  br label %redisvAsyncCommand.exit

redisvAsyncCommand.exit:                          ; preds = %entry, %if.end.i
  %retval.0.i = phi i32 [ %call1.i, %if.end.i ], [ -1, %entry ]
  call void @llvm.lifetime.end.p0(i64 8, ptr nonnull %cmd.i)
  call void @llvm.va_end.p0(ptr nonnull %ap)
  ret i32 %retval.0.i
}